target datalayout = "e-m:e-p270:32:32-p271:32:32-p272:64:64-i64:64-i128:128-f80:128-n8:16:32:64-S128"
target triple = "x86_64-pc-linux-gnu"

%struct.WebPIDecoder = type { i32, %struct.WebPDecParams, i32, ptr, %struct.VP8Io, %struct.MemBuffer, %struct.WebPDecBuffer, ptr, i64, i32 }
%struct.WebPDecParams = type { ptr, ptr, ptr, ptr, i32, ptr, ptr, ptr, ptr, ptr, ptr, ptr, ptr, ptr }
%struct.VP8Io = type { i32, i32, i32, i32, i32, ptr, ptr, ptr, i32, i32, ptr, ptr, ptr, ptr, i32, i64, ptr, i32, i32, i32, i32, i32, i32, i32, i32, i32, ptr }
%struct.MemBuffer = type { i32, i64, i64, i64, ptr, i64, ptr }
%struct.WebPDecBuffer = type { i32, i32, i32, i32, %union.anon, [4 x i32], ptr }
%union.anon = type { %struct.WebPYUVABuffer }
%struct.WebPYUVABuffer = type { ptr, ptr, ptr, ptr, i32, i32, i32, i32, i64, i64, i64, i64 }

; Function Attrs: nounwind uwtable
define internal void @ClearMemBuffer(ptr noundef %0) #0 {
  %2 = alloca ptr, align 8
  store ptr %0, ptr %2, align 8, !tbaa !35
  %3 = load ptr, ptr %2, align 8, !tbaa !35
  %4 = getelementptr inbounds nuw %struct.MemBuffer, ptr %3, i32 0, i32 0
  %5 = load i32, ptr %4, align 8, !tbaa !36
  %6 = icmp eq i32 %5, 1
  br i1 %6, label %7, label %14

7:                                                ; preds = %1
  %8 = load ptr, ptr %2, align 8, !tbaa !35
  %9 = getelementptr inbounds nuw %struct.MemBuffer, ptr %8, i32 0, i32 4
  %10 = load ptr, ptr %9, align 8, !tbaa !37
  call void @WebPSafeFree(ptr noundef %10)
  %11 = load ptr, ptr %2, align 8, !tbaa !35
  %12 = getelementptr inbounds nuw %struct.MemBuffer, ptr %11, i32 0, i32 6
  %13 = load ptr, ptr %12, align 8, !tbaa !38
  call void @WebPSafeFree(ptr noundef %13)
  br label %14

14:                                               ; preds = %7, %1
  ret void
}

; Function Attrs: nounwind uwtable
define void @WebPIDelete(ptr noundef %0) #0 {
  %2 = alloca ptr, align 8
  store ptr %0, ptr %2, align 8, !tbaa !10
  %3 = load ptr, ptr %2, align 8, !tbaa !10
  %4 = icmp eq ptr %3, null
  br i1 %4, label %5, label %6

5:                                                ; preds = %1
  br label %43

6:                                                ; preds = %1
  %7 = load ptr, ptr %2, align 8, !tbaa !10
  %8 = getelementptr inbounds nuw %struct.WebPIDecoder, ptr %7, i32 0, i32 3
  %9 = load ptr, ptr %8, align 8, !tbaa !33
  %10 = icmp ne ptr %9, null
  br i1 %10, label %11, label %37

11:                                               ; preds = %6
  %12 = load ptr, ptr %2, align 8, !tbaa !10
  %13 = getelementptr inbounds nuw %struct.WebPIDecoder, ptr %12, i32 0, i32 2
  %14 = load i32, ptr %13, align 8, !tbaa !34
  %15 = icmp ne i32 %14, 0
  br i1 %15, label %32, label %16

16:                                               ; preds = %11
  %17 = load ptr, ptr %2, align 8, !tbaa !10
  %18 = getelementptr inbounds nuw %struct.WebPIDecoder, ptr %17, i32 0, i32 0
  %19 = load i32, ptr %18, align 8, !tbaa !12
  %20 = icmp eq i32 %19, 3
  br i1 %20, label %21, label %28

21:                                               ; preds = %16
  %22 = load ptr, ptr %2, align 8, !tbaa !10
  %23 = getelementptr inbounds nuw %struct.WebPIDecoder, ptr %22, i32 0, i32 3
  %24 = load ptr, ptr %23, align 8, !tbaa !33
  %25 = load ptr, ptr %2, align 8, !tbaa !10
  %26 = getelementptr inbounds nuw %struct.WebPIDecoder, ptr %25, i32 0, i32 4
  %27 = call i32 @VP8ExitCritical(ptr noundef %24, ptr noundef %26)
  br label %28

28:                                               ; preds = %21, %16
  %29 = load ptr, ptr %2, align 8, !tbaa !10
  %30 = getelementptr inbounds nuw %struct.WebPIDecoder, ptr %29, i32 0, i32 3
  %31 = load ptr, ptr %30, align 8, !tbaa !33
  call void @VP8Delete(ptr noundef %31)
  br label %36

32:                                               ; preds = %11
  %33 = load ptr, ptr %2, align 8, !tbaa !10
  %34 = getelementptr inbounds nuw %struct.WebPIDecoder, ptr %33, i32 0, i32 3
  %35 = load ptr, ptr %34, align 8, !tbaa !33
  call void @VP8LDelete(ptr noundef %35)
  br label %36

36:                                               ; preds = %32, %28
  br label %37

37:                                               ; preds = %36, %6
  %38 = load ptr, ptr %2, align 8, !tbaa !10
  %39 = getelementptr inbounds nuw %struct.WebPIDecoder, ptr %38, i32 0, i32 5
  call void @ClearMemBuffer(ptr noundef %39)
  %40 = load ptr, ptr %2, align 8, !tbaa !10
  %41 = getelementptr inbounds nuw %struct.WebPIDecoder, ptr %40, i32 0, i32 6
  call void @WebPFreeDecBuffer(ptr noundef %41)
  %42 = load ptr, ptr %2, align 8, !tbaa !10
  call void @WebPSafeFree(ptr noundef %42)
  br label %43

43:                                               ; preds = %37, %5
  ret void
}