; Function Attrs: nounwind uwtable
define void @WebPIDelete(ptr noundef %0) local_unnamed_addr #0 {
  %2 = icmp eq ptr %0, null
  br i1 %2, label %28, label %3

3:                                                ; preds = %1
  %4 = getelementptr inbounds nuw i8, ptr %0, i64 128
  %5 = load ptr, ptr %4, align 8, !tbaa !25
  %.not = icmp eq ptr %5, null
  br i1 %.not, label %18, label %6

6:                                                ; preds = %3
  %7 = getelementptr inbounds nuw i8, ptr %0, i64 120
  %8 = load i32, ptr %7, align 8, !tbaa !26
  %.not12 = icmp eq i32 %8, 0
  br i1 %.not12, label %9, label %17

9:                                                ; preds = %6
  %10 = load i32, ptr %0, align 8, !tbaa !3
  %11 = icmp eq i32 %10, 3
  br i1 %11, label %12, label %15

12:                                               ; preds = %9
  %13 = getelementptr inbounds nuw i8, ptr %0, i64 136
  %14 = tail call i32 @VP8ExitCritical(ptr noundef nonnull %5, ptr noundef nonnull %13) #7
  %.pre = load ptr, ptr %4, align 8, !tbaa !25
  br label %15

15:                                               ; preds = %12, %9
  %16 = phi ptr [ %.pre, %12 ], [ %5, %9 ]
  tail call void @VP8Delete(ptr noundef %16) #7
  br label %18

17:                                               ; preds = %6
  tail call void @VP8LDelete(ptr noundef nonnull %5) #7
  br label %18

18:                                               ; preds = %15, %17, %3
  %19 = getelementptr inbounds nuw i8, ptr %0, i64 296
  %20 = load i32, ptr %19, align 8, !tbaa !20
  %21 = icmp eq i32 %20, 1
  br i1 %21, label %22, label %ClearMemBuffer.exit

22:                                               ; preds = %18
  %23 = getelementptr inbounds nuw i8, ptr %0, i64 328
  %24 = load ptr, ptr %23, align 8, !tbaa !27
  tail call void @WebPSafeFree(ptr noundef %24) #7
  %25 = getelementptr inbounds nuw i8, ptr %0, i64 344
  %26 = load ptr, ptr %25, align 8, !tbaa !28
  tail call void @WebPSafeFree(ptr noundef %26) #7
  br label %ClearMemBuffer.exit

ClearMemBuffer.exit:                              ; preds = %18, %22
  %27 = getelementptr inbounds nuw i8, ptr %0, i64 352
  tail call void @WebPFreeDecBuffer(ptr noundef nonnull %27) #7
  tail call void @WebPSafeFree(ptr noundef nonnull %0) #7
  br label %28

28:                                               ; preds = %1, %ClearMemBuffer.exit
  ret void
}